target datalayout = "e-m:e-p270:32:32-p271:32:32-p272:64:64-i64:64-i128:128-f80:128-n8:16:32:64-S128"
target triple = "x86_64-pc-linux-gnu"

%struct.redisServer = type { i32, i64, ptr, ptr, ptr, i32, i32, i32, i32, i32, ptr, ptr, ptr, ptr, ptr, i32, i32, i32, i32, i64, i32, i32, i32, i32, ptr, i32, i32, [41 x i8], i32, i64, i32, i32, i32, ptr, ptr, i32, i32, i64, ptr, ptr, ptr, ptr, [2 x i32], i32, i32, i32, i32, i32, i32, [16 x ptr], i32, ptr, ptr, i32, [8 x %struct.connListener], i32, %struct.connListener, ptr, ptr, ptr, ptr, ptr, ptr, ptr, ptr, ptr, ptr, i32, ptr, i32, ptr, [3 x %struct.pause_event], [256 x i8], ptr, i64, i32, i32, [128 x i32], i32, i32, i64, i32, i32, i32, i32, i32, i64, i64, i64, i64, i64, i64, i64, i64, i64, i64, double, i64, i64, i64, i64, i64, i64, i64, i64, i64, i64, i64, i64, i64, i64, i64, i64, i64, i64, i64, i64, i64, double, i64, i64, i64, i64, i64, ptr, i64, i64, i64, %struct.malloc_stats, i64, i64, i64, i64, i64, i64, i64, i64, i64, i64, i64, i64, double, [4 x i64], i64, i64, i64, i64, [128 x i64], [128 x i64], i64, i64, [7 x %struct.anon], i64, i64, i64, i64, i64, i64, [4 x %struct.durationStats], i32, i32, i32, i32, i32, i32, i32, i32, i32, i32, i32, i32, i64, i32, i32, i32, i32, i64, i64, i32, i32, i32, i32, i32, ptr, [3 x %struct.clientBufferLimitsConfig], i32, i32, i32, ptr, i32, i32, i32, i32, i32, i32, ptr, ptr, i32, i32, i64, i64, i64, i64, i64, i32, i32, ptr, i32, i32, i64, i64, i64, i64, i64, i32, i32, i64, i32, i32, i32, i32, i32, i32, i32, i32, ptr, i32, i64, i64, i64, i64, i32, ptr, i32, ptr, i32, i32, i32, i64, i64, i64, i64, i32, i32, i32, i32, i32, i32, ptr, i32, i32, ptr, i32, i32, i32, [2 x i32], i32, %struct.redisOpArray, i32, ptr, i32, ptr, i32, i32, i32, i32, i32, i32, i32, [41 x i8], [41 x i8], i64, i64, i64, i64, i32, i32, ptr, i64, i64, %struct.replDataBuf, i64, i64, i32, i32, i32, i32, i32, i32, i32, i32, i32, i64, ptr, i64, ptr, ptr, ptr, i32, i32, ptr, ptr, i32, i32, i32, i64, i64, i64, i64, ptr, ptr, i32, ptr, i64, i32, i32, i32, i64, i32, i32, i32, i32, ptr, i32, i32, [41 x i8], i64, i32, ptr, i32, i32, i64, i64, i32, i32, i32, i32, i32, i64, [3 x i32], i32, i32, i32, [10 x i32], ptr, ptr, i32, i64, ptr, ptr, i32, i32, i32, i32, i64, i64, i64, i64, i64, i64, i64, i64, i64, i64, i32, i32, i64, i64, i32, i64, i64, i64, i64, i64, ptr, ptr, i32, ptr, i32, i32, i32, i32, i64, i64, ptr, ptr, i32, i32, i32, i32, i32, ptr, ptr, ptr, i32, i32, i32, i32, i32, i32, i32, i64, i32, i32, i64, i32, i32, i32, i32, i32, i32, i32, i64, ptr, ptr, i64, ptr, i32, %struct.aclInfo, i32, i64, i32, i32, i32, %struct.redisTLSContextConfig, ptr, ptr, ptr, ptr, ptr, i64, i32, ptr, i32, i32, i32, i64, i32, ptr }
%struct.connListener = type { [16 x i32], i32, ptr, i32, i32, ptr, ptr }
%struct.pause_event = type { i32, i64 }
%struct.malloc_stats = type { i64, i64, i64, i64, i64, i64, i64, i64, i64, i64, i64 }
%struct.anon = type { i64, i64, [16 x i64], i32 }
%struct.durationStats = type { i64, i64, i64 }
%struct.clientBufferLimitsConfig = type { i64, i64, i64 }
%struct.redisOpArray = type { ptr, i32, i32 }
%struct.replDataBuf = type { ptr, i64, i64, i64, i64 }
%struct.aclInfo = type { i64, i64, i64, i64 }
%struct.redisTLSContextConfig = type { ptr, ptr, ptr, ptr, ptr, ptr, ptr, ptr, ptr, ptr, ptr, ptr, i32, i32, i32, i32 }
%struct._rio = type { ptr, ptr, ptr, ptr, ptr, i64, i64, i64, i64, %union.anon }
%union.anon = type { %struct.anon.2 }
%struct.anon.2 = type { ptr, i64, ptr, i64, i64 }
%struct.rdbLoadingCtx = type { ptr, ptr }
%struct.stat = type { i64, i64, i64, i32, i32, i32, i32, i64, i64, i64, i64, %struct.timespec, %struct.timespec, %struct.timespec, [3 x i64] }
%struct.timespec = type { i64, i64 }

@rdbFileBeingLoaded = dso_local global ptr null, align 8
@server = external global %struct.redisServer, align 8
@.str.149 = private unnamed_addr constant [2 x i8] c"r\00", align 1
@.str.150 = private unnamed_addr constant [56 x i8] c"Fatal error: can't open the RDB file %s for reading: %s\00", align 1

; Function Attrs: nounwind uwtable
define dso_local void @stopLoading(i32 noundef %0) #0 {
  %2 = alloca i32, align 4
  store i32 %0, ptr %2, align 4, !tbaa !5
  store volatile i32 0, ptr getelementptr inbounds nuw (%struct.redisServer, ptr @server, i32 0, i32 84), align 4, !tbaa !232
  store volatile i32 0, ptr getelementptr inbounds nuw (%struct.redisServer, ptr @server, i32 0, i32 85), align 8, !tbaa !274
  call void @blockingOperationEnds()
  store ptr null, ptr @rdbFileBeingLoaded, align 8, !tbaa !9
  %3 = load i32, ptr %2, align 4, !tbaa !5
  %4 = icmp ne i32 %3, 0
  %5 = select i1 %4, i32 3, i32 4
  call void @moduleFireServerEvent(i64 noundef 3, i32 noundef %5, ptr noundef null)
  ret void
}

; Function Attrs: nounwind uwtable
define dso_local i32 @rdbLoadRio(ptr noundef %0, i32 noundef %1, ptr noundef %2) #0 {
  %4 = alloca ptr, align 8
  %5 = alloca i32, align 4
  %6 = alloca ptr, align 8
  %7 = alloca ptr, align 8
  %8 = alloca %struct.rdbLoadingCtx, align 8
  %9 = alloca i32, align 4
  store ptr %0, ptr %4, align 8, !tbaa !53
  store i32 %1, ptr %5, align 4, !tbaa !5
  store ptr %2, ptr %6, align 8, !tbaa !179
  call void @llvm.lifetime.start.p0(i64 8, ptr %7) #15
  %10 = call ptr @functionsLibCtxGetCurrent()
  store ptr %10, ptr %7, align 8, !tbaa !284
  call void @llvm.lifetime.start.p0(i64 16, ptr %8) #15
  %11 = getelementptr inbounds nuw %struct.rdbLoadingCtx, ptr %8, i32 0, i32 0
  %12 = load ptr, ptr getelementptr inbounds nuw (%struct.redisServer, ptr @server, i32 0, i32 10), align 8, !tbaa !194
  store ptr %12, ptr %11, align 8, !tbaa !286
  %13 = getelementptr inbounds nuw %struct.rdbLoadingCtx, ptr %8, i32 0, i32 1
  %14 = load ptr, ptr %7, align 8, !tbaa !284
  store ptr %14, ptr %13, align 8, !tbaa !288
  call void @llvm.lifetime.start.p0(i64 4, ptr %9) #15
  %15 = load ptr, ptr %4, align 8, !tbaa !53
  %16 = load i32, ptr %5, align 4, !tbaa !5
  %17 = load ptr, ptr %6, align 8, !tbaa !179
  %18 = call i32 @rdbLoadRioWithLoadingCtx(ptr noundef %15, i32 noundef %16, ptr noundef %17, ptr noundef %8)
  store i32 %18, ptr %9, align 4, !tbaa !5
  %19 = load i32, ptr %9, align 4, !tbaa !5
  call void @llvm.lifetime.end.p0(i64 4, ptr %9) #15
  call void @llvm.lifetime.end.p0(i64 16, ptr %8) #15
  call void @llvm.lifetime.end.p0(i64 8, ptr %7) #15
  ret i32 %19
}

; Function Attrs: nounwind uwtable
define dso_local void @loadingFireEvent(i32 noundef %0) #0 {
  %2 = alloca i32, align 4
  %3 = alloca i32, align 4
  store i32 %0, ptr %2, align 4, !tbaa !5
  call void @llvm.lifetime.start.p0(i64 4, ptr %3) #15
  %4 = load i32, ptr %2, align 4, !tbaa !5
  %5 = and i32 %4, 1
  %6 = icmp ne i32 %5, 0
  br i1 %6, label %7, label %8

7:                                                ; preds = %1
  store i32 1, ptr %3, align 4, !tbaa !5
  br label %15

8:                                                ; preds = %1
  %9 = load i32, ptr %2, align 4, !tbaa !5
  %10 = and i32 %9, 2
  %11 = icmp ne i32 %10, 0
  br i1 %11, label %12, label %13

12:                                               ; preds = %8
  store i32 2, ptr %3, align 4, !tbaa !5
  br label %14

13:                                               ; preds = %8
  store i32 0, ptr %3, align 4, !tbaa !5
  br label %14

14:                                               ; preds = %13, %12
  br label %15

15:                                               ; preds = %14, %7
  %16 = load i32, ptr %3, align 4, !tbaa !5
  call void @moduleFireServerEvent(i64 noundef 3, i32 noundef %16, ptr noundef null)
  call void @llvm.lifetime.end.p0(i64 4, ptr %3) #15
  ret void
}

; Function Attrs: nounwind uwtable
define dso_local void @loadingSetFlags(ptr noundef %0, i64 noundef %1, i32 noundef %2) #0 {
  %4 = alloca ptr, align 8
  %5 = alloca i64, align 8
  %6 = alloca i32, align 4
  store ptr %0, ptr %4, align 8, !tbaa !9
  store i64 %1, ptr %5, align 8, !tbaa !56
  store i32 %2, ptr %6, align 4, !tbaa !5
  %7 = load ptr, ptr %4, align 8, !tbaa !9
  store ptr %7, ptr @rdbFileBeingLoaded, align 8, !tbaa !9
  store volatile i32 1, ptr getelementptr inbounds nuw (%struct.redisServer, ptr @server, i32 0, i32 84), align 4, !tbaa !232
  %8 = load i32, ptr %6, align 4, !tbaa !5
  %9 = icmp eq i32 %8, 1
  br i1 %9, label %10, label %11

10:                                               ; preds = %3
  store volatile i32 1, ptr getelementptr inbounds nuw (%struct.redisServer, ptr @server, i32 0, i32 85), align 8, !tbaa !274
  br label %11

11:                                               ; preds = %10, %3
  %12 = call i64 @time(ptr noundef null) #15
  store i64 %12, ptr getelementptr inbounds nuw (%struct.redisServer, ptr @server, i32 0, i32 89), align 8, !tbaa !275
  store i64 0, ptr getelementptr inbounds nuw (%struct.redisServer, ptr @server, i32 0, i32 88), align 8, !tbaa !12
  %13 = load i64, ptr %5, align 8, !tbaa !56
  store i64 %13, ptr getelementptr inbounds nuw (%struct.redisServer, ptr @server, i32 0, i32 86), align 8, !tbaa !276
  store i64 0, ptr getelementptr inbounds nuw (%struct.redisServer, ptr @server, i32 0, i32 87), align 8, !tbaa !277
  store i64 0, ptr getelementptr inbounds nuw (%struct.redisServer, ptr @server, i32 0, i32 229), align 8, !tbaa !278
  store i64 0, ptr getelementptr inbounds nuw (%struct.redisServer, ptr @server, i32 0, i32 230), align 8, !tbaa !279
  call void @blockingOperationStarts()
  ret void
}

; Function Attrs: nounwind uwtable
define dso_local i32 @rdbLoadWithEmptyFunc(ptr noundef %0, ptr noundef %1, i32 noundef %2, ptr noundef %3) #0 {
  %5 = alloca i32, align 4
  %6 = alloca ptr, align 8
  %7 = alloca ptr, align 8
  %8 = alloca i32, align 4
  %9 = alloca ptr, align 8
  %10 = alloca ptr, align 8
  %11 = alloca %struct._rio, align 8
  %12 = alloca i32, align 4
  %13 = alloca %struct.stat, align 8
  %14 = alloca i32, align 4
  %15 = alloca i32, align 4
  store ptr %0, ptr %6, align 8, !tbaa !9
  store ptr %1, ptr %7, align 8, !tbaa !179
  store i32 %2, ptr %8, align 4, !tbaa !5
  store ptr %3, ptr %9, align 8, !tbaa !55
  call void @llvm.lifetime.start.p0(i64 8, ptr %10) #15
  call void @llvm.lifetime.start.p0(i64 112, ptr %11) #15
  call void @llvm.lifetime.start.p0(i64 4, ptr %12) #15
  call void @llvm.lifetime.start.p0(i64 144, ptr %13) #15
  call void @llvm.lifetime.start.p0(i64 4, ptr %14) #15
  %16 = load ptr, ptr %6, align 8, !tbaa !9
  %17 = call noalias ptr @fopen64(ptr noundef %16, ptr noundef @.str.149)
  store ptr %17, ptr %10, align 8, !tbaa !208
  %18 = load ptr, ptr %10, align 8, !tbaa !208
  %19 = icmp eq ptr %18, null
  br i1 %19, label %20, label %37

20:                                               ; preds = %4
  %21 = call ptr @__errno_location() #19
  %22 = load i32, ptr %21, align 4, !tbaa !5
  %23 = icmp eq i32 %22, 2
  br i1 %23, label %24, label %25

24:                                               ; preds = %20
  store i32 1, ptr %5, align 4
  store i32 1, ptr %15, align 4
  br label %89

25:                                               ; preds = %20
  br label %26

26:                                               ; preds = %25
  %27 = load i32, ptr getelementptr inbounds nuw (%struct.redisServer, ptr @server, i32 0, i32 159), align 8, !tbaa !52
  %28 = icmp slt i32 3, %27
  br i1 %28, label %29, label %30

29:                                               ; preds = %26
  br label %36

30:                                               ; preds = %26
  %31 = load ptr, ptr %6, align 8, !tbaa !9
  %32 = call ptr @__errno_location() #19
  %33 = load i32, ptr %32, align 4, !tbaa !5
  %34 = call ptr @strerror(i32 noundef %33) #15
  call void (i32, ptr, ...) @_serverLog(i32 noundef 3, ptr noundef @.str.150, ptr noundef %31, ptr noundef %34)
  br label %35

35:                                               ; preds = %30
  br label %36

36:                                               ; preds = %35, %29
  store i32 2, ptr %5, align 4
  store i32 1, ptr %15, align 4
  br label %89

37:                                               ; preds = %4
  %38 = load ptr, ptr %10, align 8, !tbaa !208
  %39 = call i32 @fileno(ptr noundef %38) #15
  %40 = call i32 @fstat64(i32 noundef %39, ptr noundef %13) #15
  %41 = icmp eq i32 %40, -1
  br i1 %41, label %42, label %44

42:                                               ; preds = %37
  %43 = getelementptr inbounds nuw %struct.stat, ptr %13, i32 0, i32 8
  store i64 0, ptr %43, align 8, !tbaa !305
  br label %44

44:                                               ; preds = %42, %37
  %45 = load ptr, ptr %6, align 8, !tbaa !9
  %46 = getelementptr inbounds nuw %struct.stat, ptr %13, i32 0, i32 8
  %47 = load i64, ptr %46, align 8, !tbaa !305
  call void @loadingSetFlags(ptr noundef %45, i64 noundef %47, i32 noundef 0)
  %48 = load ptr, ptr %9, align 8, !tbaa !55
  %49 = icmp ne ptr %48, null
  br i1 %49, label %50, label %52

50:                                               ; preds = %44
  %51 = load ptr, ptr %9, align 8, !tbaa !55
  call void %51()
  br label %52

52:                                               ; preds = %50, %44
  %53 = load i32, ptr %8, align 4, !tbaa !5
  call void @loadingFireEvent(i32 noundef %53)
  %54 = load ptr, ptr %10, align 8, !tbaa !208
  call void @rioInitWithFile(ptr noundef %11, ptr noundef %54)
  %55 = load i32, ptr %8, align 4, !tbaa !5
  %56 = load ptr, ptr %7, align 8, !tbaa !179
  %57 = call i32 @rdbLoadRio(ptr noundef %11, i32 noundef %55, ptr noundef %56)
  store i32 %57, ptr %12, align 4, !tbaa !5
  %58 = load ptr, ptr %10, align 8, !tbaa !208
  %59 = call i32 @fclose(ptr noundef %58)
  %60 = load i32, ptr %12, align 4, !tbaa !5
  %61 = icmp ne i32 %60, 0
  br i1 %61, label %62, label %67

62:                                               ; preds = %52
  %63 = load ptr, ptr %9, align 8, !tbaa !55
  %64 = icmp ne ptr %63, null
  br i1 %64, label %65, label %67

65:                                               ; preds = %62
  %66 = load ptr, ptr %9, align 8, !tbaa !55
  call void %66()
  br label %67

67:                                               ; preds = %65, %62, %52
  %68 = load i32, ptr %12, align 4, !tbaa !5
  %69 = icmp eq i32 %68, 0
  %70 = zext i1 %69 to i32
  call void @stopLoading(i32 noundef %70)
  %71 = load i32, ptr %12, align 4, !tbaa !5
  %72 = icmp eq i32 %71, 0
  br i1 %72, label %73, label %85

73:                                               ; preds = %67
  %74 = load i32, ptr %8, align 4, !tbaa !5
  %75 = and i32 %74, 16
  %76 = icmp ne i32 %75, 0
  br i1 %76, label %85, label %77

77:                                               ; preds = %73
  %78 = load ptr, ptr %6, align 8, !tbaa !9
  %79 = call i32 (ptr, i32, ...) @open64(ptr noundef %78, i32 noundef 0)
  store i32 %79, ptr %14, align 4, !tbaa !5
  %80 = load i32, ptr %14, align 4, !tbaa !5
  %81 = icmp sge i32 %80, 0
  br i1 %81, label %82, label %84

82:                                               ; preds = %77
  %83 = load i32, ptr %14, align 4, !tbaa !5
  call void @bioCreateCloseJob(i32 noundef %83, i32 noundef 0, i32 noundef 1)
  br label %84

84:                                               ; preds = %82, %77
  br label %85

85:                                               ; preds = %84, %73, %67
  %86 = load i32, ptr %12, align 4, !tbaa !5
  %87 = icmp eq i32 %86, 0
  %88 = select i1 %87, i32 0, i32 2
  store i32 %88, ptr %5, align 4
  store i32 1, ptr %15, align 4
  br label %89

89:                                               ; preds = %85, %36, %24
  call void @llvm.lifetime.end.p0(i64 4, ptr %14) #15
  call void @llvm.lifetime.end.p0(i64 144, ptr %13) #15
  call void @llvm.lifetime.end.p0(i64 4, ptr %12) #15
  call void @llvm.lifetime.end.p0(i64 112, ptr %11) #15
  call void @llvm.lifetime.end.p0(i64 8, ptr %10) #15
  %90 = load i32, ptr %5, align 4
  ret i32 %90
}