; Function Attrs: nounwind uwtable
define dso_local range(i32 0, 3) i32 @rdbLoadWithEmptyFunc(ptr noundef %0, ptr noundef captures(address_is_null) %1, i32 noundef %2, ptr noundef readonly captures(address_is_null) %3) local_unnamed_addr #0 {
  %5 = alloca %struct.rdbLoadingCtx, align 8
  %6 = alloca %struct._rio, align 8
  %7 = alloca %struct.stat, align 8
  call void @llvm.lifetime.start.p0(i64 112, ptr nonnull %6) #23
  call void @llvm.lifetime.start.p0(i64 144, ptr nonnull %7) #23
  %8 = tail call noalias ptr @fopen64(ptr noundef %0, ptr noundef nonnull @.str.149)
  %9 = icmp eq ptr %8, null
  br i1 %9, label %10, label %19

10:                                               ; preds = %4
  %11 = tail call ptr @__errno_location() #28
  %12 = load i32, ptr %11, align 4, !tbaa !51
  %13 = icmp eq i32 %12, 2
  br i1 %13, label %45, label %14

14:                                               ; preds = %10
  %15 = load i32, ptr getelementptr inbounds nuw (i8, ptr @server, i64 6288), align 8, !tbaa !50
  %16 = icmp sgt i32 %15, 3
  br i1 %16, label %45, label %17

17:                                               ; preds = %14
  %18 = tail call ptr @strerror(i32 noundef %12) #23
  tail call void (i32, ptr, ...) @_serverLog(i32 noundef 3, ptr noundef nonnull @.str.150, ptr noundef %0, ptr noundef %18) #23
  br label %45

19:                                               ; preds = %4
  %20 = tail call i32 @fileno(ptr noundef nonnull %8) #23
  %21 = call i32 @fstat64(i32 noundef %20, ptr noundef nonnull %7) #23
  %22 = icmp eq i32 %21, -1
  %.phi.trans.insert = getelementptr inbounds nuw i8, ptr %7, i64 48
  %.pre = load i64, ptr %.phi.trans.insert, align 8
  %23 = select i1 %22, i64 0, i64 %.pre
  store ptr %0, ptr @rdbFileBeingLoaded, align 8, !tbaa !52
  store volatile i32 1, ptr getelementptr inbounds nuw (i8, ptr @server, i64 2412), align 4, !tbaa !190
  %24 = tail call i64 @time(ptr noundef null) #23
  store i64 %24, ptr getelementptr inbounds nuw (i8, ptr @server, i64 2448), align 8, !tbaa !226
  store i64 0, ptr getelementptr inbounds nuw (i8, ptr @server, i64 2440), align 8, !tbaa !5
  store i64 %23, ptr getelementptr inbounds nuw (i8, ptr @server, i64 2424), align 8, !tbaa !227
  store i64 0, ptr getelementptr inbounds nuw (i8, ptr @server, i64 2432), align 8, !tbaa !228
  tail call void @llvm.memset.p0.i64(ptr noundef nonnull align 8 dereferenceable(16) getelementptr inbounds nuw (i8, ptr @server, i64 6736), i8 0, i64 16, i1 false)
  tail call void @blockingOperationStarts() #23
  %25 = icmp ne ptr %3, null
  br i1 %25, label %26, label %27

26:                                               ; preds = %19
  tail call void %3() #23
  br label %27

27:                                               ; preds = %26, %19
  %28 = and i32 %2, 1
  %.not.i = icmp eq i32 %28, 0
  %29 = and i32 %2, 2
  %.0.i = select i1 %.not.i, i32 %29, i32 1
  tail call void @moduleFireServerEvent(i64 noundef 3, i32 noundef %.0.i, ptr noundef null) #23
  call void @rioInitWithFile(ptr noundef nonnull %6, ptr noundef nonnull %8) #23
  %30 = call ptr @functionsLibCtxGetCurrent() #23
  call void @llvm.lifetime.start.p0(i64 16, ptr nonnull %5) #23
  %31 = load ptr, ptr getelementptr inbounds nuw (i8, ptr @server, i64 64), align 8, !tbaa !157
  store ptr %31, ptr %5, align 8, !tbaa !233
  %32 = getelementptr inbounds nuw i8, ptr %5, i64 8
  store ptr %30, ptr %32, align 8, !tbaa !236
  %33 = call i32 @rdbLoadRioWithLoadingCtx(ptr noundef nonnull %6, i32 noundef %2, ptr noundef %1, ptr noundef nonnull %5)
  call void @llvm.lifetime.end.p0(i64 16, ptr nonnull %5) #23
  %34 = call i32 @fclose(ptr noundef nonnull %8)
  %35 = icmp ne i32 %33, 0
  %or.cond = and i1 %25, %35
  br i1 %or.cond, label %36, label %37

36:                                               ; preds = %27
  call void %3() #23
  br label %37

37:                                               ; preds = %36, %27
  %.not28 = icmp eq i32 %33, 0
  store volatile i32 0, ptr getelementptr inbounds nuw (i8, ptr @server, i64 2412), align 4, !tbaa !190
  store volatile i32 0, ptr getelementptr inbounds nuw (i8, ptr @server, i64 2416), align 8, !tbaa !225
  call void @blockingOperationEnds() #23
  store ptr null, ptr @rdbFileBeingLoaded, align 8, !tbaa !52
  %38 = select i1 %.not28, i32 3, i32 4
  call void @moduleFireServerEvent(i64 noundef 3, i32 noundef %38, ptr noundef null) #23
  br i1 %.not28, label %39, label %45

39:                                               ; preds = %37
  %40 = and i32 %2, 16
  %.not = icmp eq i32 %40, 0
  br i1 %.not, label %41, label %45

41:                                               ; preds = %39
  %42 = call i32 (ptr, i32, ...) @open64(ptr noundef %0, i32 noundef 0) #23
  %43 = icmp sgt i32 %42, -1
  br i1 %43, label %44, label %45

44:                                               ; preds = %41
  call void @bioCreateCloseJob(i32 noundef %42, i32 noundef 0, i32 noundef 1) #23
  br label %45

45:                                               ; preds = %37, %39, %44, %41, %17, %14, %10
  %.0 = phi i32 [ 1, %10 ], [ 2, %14 ], [ 2, %17 ], [ 0, %41 ], [ 0, %44 ], [ 0, %39 ], [ 2, %37 ]
  call void @llvm.lifetime.end.p0(i64 144, ptr nonnull %7) #23
  call void @llvm.lifetime.end.p0(i64 112, ptr nonnull %6) #23
  ret i32 %.0
}